; Function Attrs: mustprogress nofree norecurse nosync nounwind willreturn memory(read, inaccessiblemem: none) uwtable
define noundef zeroext i1 @_ZNK32pxrInternal_v0_24__pxrReserved__7GfVec3ieqERKNS_7GfVec3hE(ptr nocapture noundef nonnull readonly align 4 dereferenceable(12) %0, ptr nocapture noundef nonnull readonly align 2 dereferenceable(6) %1) local_unnamed_addr #3 align 2 {
  %3 = load i32, ptr %0, align 4
  %4 = sitofp i32 %3 to float
  %5 = load i16, ptr %1, align 2
  %6 = zext i16 %5 to i64
  %7 = getelementptr inbounds [65536 x %"union.pxrInternal_v0_24__pxrReserved__::pxr_half::half::uif"], ptr @_ZN32pxrInternal_v0_24__pxrReserved__8pxr_half4half8_toFloatE, i64 0, i64 %6
  %8 = load float, ptr %7, align 4
  %9 = fcmp oeq float %8, %4
  br i1 %9, label %10, label %30

10:                                               ; preds = %2
  %11 = getelementptr inbounds i8, ptr %0, i64 4
  %12 = load i32, ptr %11, align 4
  %13 = sitofp i32 %12 to float
  %14 = getelementptr inbounds i8, ptr %1, i64 2
  %15 = load i16, ptr %14, align 2
  %16 = zext i16 %15 to i64
  %17 = getelementptr inbounds [65536 x %"union.pxrInternal_v0_24__pxrReserved__::pxr_half::half::uif"], ptr @_ZN32pxrInternal_v0_24__pxrReserved__8pxr_half4half8_toFloatE, i64 0, i64 %16
  %18 = load float, ptr %17, align 4
  %19 = fcmp oeq float %18, %13
  br i1 %19, label %20, label %30

20:                                               ; preds = %10
  %21 = getelementptr inbounds i8, ptr %0, i64 8
  %22 = load i32, ptr %21, align 4
  %23 = sitofp i32 %22 to float
  %24 = getelementptr inbounds i8, ptr %1, i64 4
  %25 = load i16, ptr %24, align 2
  %26 = zext i16 %25 to i64
  %27 = getelementptr inbounds [65536 x %"union.pxrInternal_v0_24__pxrReserved__::pxr_half::half::uif"], ptr @_ZN32pxrInternal_v0_24__pxrReserved__8pxr_half4half8_toFloatE, i64 0, i64 %26
  %28 = load float, ptr %27, align 4
  %29 = fcmp oeq float %28, %23
  br label %30

30:                                               ; preds = %20, %10, %2
  %31 = phi i1 [ false, %10 ], [ false, %2 ], [ %29, %20 ]
  ret i1 %31
}